; Function Attrs: nounwind uwtable
define internal range(i32 -20, 4) i32 @idaNlsLSolve(ptr noundef %0, ptr noundef %1) #0 {
  %3 = icmp eq ptr %1, null
  br i1 %3, label %4, label %5

4:                                                ; preds = %2
  tail call void (ptr, i32, i32, ptr, ptr, ptr, ...) @IDAProcessError(ptr noundef null, i32 noundef -20, i32 noundef 275, ptr noundef nonnull @__func__.idaNlsLSolve, ptr noundef nonnull @.str, ptr noundef nonnull @.str.1) #3
  br label %19

5:                                                ; preds = %2
  %6 = getelementptr inbounds nuw i8, ptr %1, i64 1024
  %7 = load ptr, ptr %6, align 8, !tbaa !43
  %8 = getelementptr inbounds nuw i8, ptr %1, i64 384
  %9 = load ptr, ptr %8, align 8, !tbaa !50
  %10 = getelementptr inbounds nuw i8, ptr %1, i64 392
  %11 = load ptr, ptr %10, align 8, !tbaa !27
  %12 = getelementptr inbounds nuw i8, ptr %1, i64 400
  %13 = load ptr, ptr %12, align 8, !tbaa !30
  %14 = getelementptr inbounds nuw i8, ptr %1, i64 448
  %15 = load ptr, ptr %14, align 8, !tbaa !34
  %16 = tail call i32 %7(ptr noundef nonnull %1, ptr noundef %0, ptr noundef %9, ptr noundef %11, ptr noundef %13, ptr noundef %15) #3
  %17 = icmp slt i32 %16, 0
  br i1 %17, label %19, label %18

18:                                               ; preds = %5
  %.not = icmp eq i32 %16, 0
  %. = select i1 %.not, i32 0, i32 3
  br label %19

19:                                               ; preds = %18, %5, %4
  %.0 = phi i32 [ -20, %4 ], [ -7, %5 ], [ %., %18 ]
  ret i32 %.0
}